target datalayout = "e-m:e-p270:32:32-p271:32:32-p272:64:64-i64:64-i128:128-f80:128-n8:16:32:64-S128"
target triple = "x86_64-pc-linux-gnu"

@hf_udvm_multitype_bytecode = internal global i32 0, align 4
@display_udvm_bytecode = internal global i8 0, align 1

; Function Attrs: null_pointer_is_valid sspstrong uwtable
define internal i32 @dissect_udvm_multitype_operand(ptr noundef %0, ptr noundef %1, i32 noundef %2, i1 noundef zeroext %3, ptr noundef %4, ptr noundef %5, ptr noundef %6) #0 {
  %8 = alloca ptr, align 8
  %9 = alloca ptr, align 8
  %10 = alloca i32, align 4
  %11 = alloca i8, align 1
  %12 = alloca ptr, align 8
  %13 = alloca ptr, align 8
  %14 = alloca ptr, align 8
  %15 = alloca i32, align 4
  %16 = alloca i32, align 4
  %17 = alloca i16, align 2
  %18 = alloca i32, align 4
  %19 = alloca i32, align 4
  store ptr %0, ptr %8, align 8
  store ptr %1, ptr %9, align 8
  store i32 %2, ptr %10, align 4
  %20 = zext i1 %3 to i8
  store i8 %20, ptr %11, align 1
  store ptr %4, ptr %12, align 8
  store ptr %5, ptr %13, align 8
  store ptr %6, ptr %14, align 8
  call void @llvm.lifetime.start.p0(i64 4, ptr %15) #10
  call void @llvm.lifetime.start.p0(i64 4, ptr %16) #10
  call void @llvm.lifetime.start.p0(i64 2, ptr %17) #10
  call void @llvm.lifetime.start.p0(i64 4, ptr %18) #10
  call void @llvm.lifetime.start.p0(i64 4, ptr %19) #10
  %21 = load ptr, ptr %14, align 8
  store i8 0, ptr %21, align 1
  %22 = load ptr, ptr %8, align 8
  %23 = load i32, ptr %10, align 4
  %24 = call zeroext i8 @tvb_get_uint8(ptr noundef %22, i32 noundef %23)
  %25 = zext i8 %24 to i32
  store i32 %25, ptr %15, align 4
  %26 = load i32, ptr %15, align 4
  %27 = and i32 %26, 192
  %28 = lshr i32 %27, 6
  store i32 %28, ptr %19, align 4
  %29 = load i32, ptr %19, align 4
  switch i32 %29, label %292 [
    i32 0, label %30
    i32 1, label %52
    i32 2, label %76
    i32 3, label %236
  ]

30:                                               ; preds = %7
  %31 = load i32, ptr %15, align 4
  %32 = and i32 %31, 192
  store i32 %32, ptr %16, align 4
  %33 = load i8, ptr @display_udvm_bytecode, align 1, !range !8, !noundef !9
  %34 = trunc i8 %33 to i1
  br i1 %34, label %35, label %42

35:                                               ; preds = %30
  %36 = load ptr, ptr %9, align 8
  %37 = load i32, ptr @hf_udvm_multitype_bytecode, align 4
  %38 = load ptr, ptr %8, align 8
  %39 = load i32, ptr %10, align 4
  %40 = load i32, ptr %16, align 4
  %41 = call ptr @proto_tree_add_uint(ptr noundef %36, i32 noundef %37, ptr noundef %38, i32 noundef %39, i32 noundef 1, i32 noundef %40)
  br label %42

42:                                               ; preds = %35, %30
  %43 = load i32, ptr %15, align 4
  %44 = and i32 %43, 63
  %45 = trunc i32 %44 to i16
  store i16 %45, ptr %17, align 2
  %46 = load i16, ptr %17, align 2
  %47 = load ptr, ptr %13, align 8
  store i16 %46, ptr %47, align 2
  %48 = load i32, ptr %10, align 4
  %49 = load ptr, ptr %12, align 8
  store i32 %48, ptr %49, align 4
  %50 = load i32, ptr %10, align 4
  %51 = add i32 %50, 1
  store i32 %51, ptr %10, align 4
  br label %293

52:                                               ; preds = %7
  %53 = load i32, ptr %15, align 4
  %54 = and i32 %53, 192
  store i32 %54, ptr %16, align 4
  %55 = load i8, ptr @display_udvm_bytecode, align 1, !range !8, !noundef !9
  %56 = trunc i8 %55 to i1
  br i1 %56, label %57, label %64

57:                                               ; preds = %52
  %58 = load ptr, ptr %9, align 8
  %59 = load i32, ptr @hf_udvm_multitype_bytecode, align 4
  %60 = load ptr, ptr %8, align 8
  %61 = load i32, ptr %10, align 4
  %62 = load i32, ptr %16, align 4
  %63 = call ptr @proto_tree_add_uint(ptr noundef %58, i32 noundef %59, ptr noundef %60, i32 noundef %61, i32 noundef 1, i32 noundef %62)
  br label %64

64:                                               ; preds = %57, %52
  %65 = load i32, ptr %15, align 4
  %66 = and i32 %65, 63
  %67 = mul i32 %66, 2
  %68 = trunc i32 %67 to i16
  store i16 %68, ptr %17, align 2
  %69 = load ptr, ptr %14, align 8
  store i8 1, ptr %69, align 1
  %70 = load i16, ptr %17, align 2
  %71 = load ptr, ptr %13, align 8
  store i16 %70, ptr %71, align 2
  %72 = load i32, ptr %10, align 4
  %73 = load ptr, ptr %12, align 8
  store i32 %72, ptr %73, align 4
  %74 = load i32, ptr %10, align 4
  %75 = add i32 %74, 1
  store i32 %75, ptr %10, align 4
  br label %293

76:                                               ; preds = %7
  %77 = load i32, ptr %15, align 4
  %78 = and i32 %77, 224
  %79 = lshr i32 %78, 5
  store i32 %79, ptr %19, align 4
  %80 = load i32, ptr %19, align 4
  %81 = icmp eq i32 %80, 5
  br i1 %81, label %82, label %107

82:                                               ; preds = %76
  %83 = load i32, ptr %15, align 4
  %84 = and i32 %83, 224
  store i32 %84, ptr %16, align 4
  %85 = load i8, ptr @display_udvm_bytecode, align 1, !range !8, !noundef !9
  %86 = trunc i8 %85 to i1
  br i1 %86, label %87, label %94

87:                                               ; preds = %82
  %88 = load ptr, ptr %9, align 8
  %89 = load i32, ptr @hf_udvm_multitype_bytecode, align 4
  %90 = load ptr, ptr %8, align 8
  %91 = load i32, ptr %10, align 4
  %92 = load i32, ptr %16, align 4
  %93 = call ptr @proto_tree_add_uint(ptr noundef %88, i32 noundef %89, ptr noundef %90, i32 noundef %91, i32 noundef 1, i32 noundef %92)
  br label %94

94:                                               ; preds = %87, %82
  %95 = load ptr, ptr %8, align 8
  %96 = load i32, ptr %10, align 4
  %97 = call zeroext i16 @tvb_get_ntohs(ptr noundef %95, i32 noundef %96)
  %98 = zext i16 %97 to i32
  %99 = and i32 %98, 8191
  %100 = trunc i32 %99 to i16
  store i16 %100, ptr %17, align 2
  %101 = load i16, ptr %17, align 2
  %102 = load ptr, ptr %13, align 8
  store i16 %101, ptr %102, align 2
  %103 = load i32, ptr %10, align 4
  %104 = load ptr, ptr %12, align 8
  store i32 %103, ptr %104, align 4
  %105 = load i32, ptr %10, align 4
  %106 = add i32 %105, 2
  store i32 %106, ptr %10, align 4
  br label %235

107:                                              ; preds = %76
  %108 = load i32, ptr %15, align 4
  %109 = and i32 %108, 240
  %110 = lshr i32 %109, 4
  store i32 %110, ptr %19, align 4
  %111 = load i32, ptr %19, align 4
  %112 = icmp eq i32 %111, 9
  br i1 %112, label %113, label %139

113:                                              ; preds = %107
  %114 = load i32, ptr %15, align 4
  %115 = and i32 %114, 240
  store i32 %115, ptr %16, align 4
  %116 = load i8, ptr @display_udvm_bytecode, align 1, !range !8, !noundef !9
  %117 = trunc i8 %116 to i1
  br i1 %117, label %118, label %125

118:                                              ; preds = %113
  %119 = load ptr, ptr %9, align 8
  %120 = load i32, ptr @hf_udvm_multitype_bytecode, align 4
  %121 = load ptr, ptr %8, align 8
  %122 = load i32, ptr %10, align 4
  %123 = load i32, ptr %16, align 4
  %124 = call ptr @proto_tree_add_uint(ptr noundef %119, i32 noundef %120, ptr noundef %121, i32 noundef %122, i32 noundef 1, i32 noundef %123)
  br label %125

125:                                              ; preds = %118, %113
  %126 = load ptr, ptr %8, align 8
  %127 = load i32, ptr %10, align 4
  %128 = call zeroext i16 @tvb_get_ntohs(ptr noundef %126, i32 noundef %127)
  %129 = zext i16 %128 to i32
  %130 = and i32 %129, 4095
  %131 = add i32 %130, 61440
  %132 = trunc i32 %131 to i16
  store i16 %132, ptr %17, align 2
  %133 = load i32, ptr %10, align 4
  %134 = load ptr, ptr %12, align 8
  store i32 %133, ptr %134, align 4
  %135 = load i16, ptr %17, align 2
  %136 = load ptr, ptr %13, align 8
  store i16 %135, ptr %136, align 2
  %137 = load i32, ptr %10, align 4
  %138 = add i32 %137, 2
  store i32 %138, ptr %10, align 4
  br label %234

139:                                              ; preds = %107
  %140 = load i32, ptr %15, align 4
  %141 = and i32 %140, 8
  %142 = lshr i32 %141, 3
  store i32 %142, ptr %19, align 4
  %143 = load i32, ptr %19, align 4
  %144 = icmp eq i32 %143, 1
  br i1 %144, label %145, label %171

145:                                              ; preds = %139
  %146 = load i32, ptr %15, align 4
  %147 = and i32 %146, 248
  store i32 %147, ptr %16, align 4
  %148 = load i8, ptr @display_udvm_bytecode, align 1, !range !8, !noundef !9
  %149 = trunc i8 %148 to i1
  br i1 %149, label %150, label %157

150:                                              ; preds = %145
  %151 = load ptr, ptr %9, align 8
  %152 = load i32, ptr @hf_udvm_multitype_bytecode, align 4
  %153 = load ptr, ptr %8, align 8
  %154 = load i32, ptr %10, align 4
  %155 = load i32, ptr %16, align 4
  %156 = call ptr @proto_tree_add_uint(ptr noundef %151, i32 noundef %152, ptr noundef %153, i32 noundef %154, i32 noundef 1, i32 noundef %155)
  br label %157

157:                                              ; preds = %150, %145
  %158 = load i32, ptr %15, align 4
  %159 = and i32 %158, 7
  %160 = add i32 %159, 8
  %161 = shl i32 1, %160
  store i32 %161, ptr %18, align 4
  %162 = load i32, ptr %18, align 4
  %163 = and i32 %162, 65535
  %164 = trunc i32 %163 to i16
  store i16 %164, ptr %17, align 2
  %165 = load i32, ptr %10, align 4
  %166 = load ptr, ptr %12, align 8
  store i32 %165, ptr %166, align 4
  %167 = load i16, ptr %17, align 2
  %168 = load ptr, ptr %13, align 8
  store i16 %167, ptr %168, align 2
  %169 = load i32, ptr %10, align 4
  %170 = add i32 %169, 1
  store i32 %170, ptr %10, align 4
  br label %233

171:                                              ; preds = %139
  %172 = load i32, ptr %15, align 4
  %173 = and i32 %172, 14
  %174 = lshr i32 %173, 1
  store i32 %174, ptr %19, align 4
  %175 = load i32, ptr %19, align 4
  %176 = icmp eq i32 %175, 3
  br i1 %176, label %177, label %203

177:                                              ; preds = %171
  %178 = load i32, ptr %15, align 4
  %179 = and i32 %178, 254
  store i32 %179, ptr %16, align 4
  %180 = load i8, ptr @display_udvm_bytecode, align 1, !range !8, !noundef !9
  %181 = trunc i8 %180 to i1
  br i1 %181, label %182, label %189

182:                                              ; preds = %177
  %183 = load ptr, ptr %9, align 8
  %184 = load i32, ptr @hf_udvm_multitype_bytecode, align 4
  %185 = load ptr, ptr %8, align 8
  %186 = load i32, ptr %10, align 4
  %187 = load i32, ptr %16, align 4
  %188 = call ptr @proto_tree_add_uint(ptr noundef %183, i32 noundef %184, ptr noundef %185, i32 noundef %186, i32 noundef 1, i32 noundef %187)
  br label %189

189:                                              ; preds = %182, %177
  %190 = load i32, ptr %15, align 4
  %191 = and i32 %190, 1
  %192 = add i32 %191, 6
  %193 = shl i32 1, %192
  store i32 %193, ptr %18, align 4
  %194 = load i32, ptr %18, align 4
  %195 = and i32 %194, 65535
  %196 = trunc i32 %195 to i16
  store i16 %196, ptr %17, align 2
  %197 = load i32, ptr %10, align 4
  %198 = load ptr, ptr %12, align 8
  store i32 %197, ptr %198, align 4
  %199 = load i16, ptr %17, align 2
  %200 = load ptr, ptr %13, align 8
  store i16 %199, ptr %200, align 2
  %201 = load i32, ptr %10, align 4
  %202 = add i32 %201, 1
  store i32 %202, ptr %10, align 4
  br label %232

203:                                              ; preds = %171
  %204 = load i32, ptr %15, align 4
  store i32 %204, ptr %16, align 4
  %205 = load i8, ptr @display_udvm_bytecode, align 1, !range !8, !noundef !9
  %206 = trunc i8 %205 to i1
  br i1 %206, label %207, label %214

207:                                              ; preds = %203
  %208 = load ptr, ptr %9, align 8
  %209 = load i32, ptr @hf_udvm_multitype_bytecode, align 4
  %210 = load ptr, ptr %8, align 8
  %211 = load i32, ptr %10, align 4
  %212 = load i32, ptr %16, align 4
  %213 = call ptr @proto_tree_add_uint(ptr noundef %208, i32 noundef %209, ptr noundef %210, i32 noundef %211, i32 noundef 1, i32 noundef %212)
  br label %214

214:                                              ; preds = %207, %203
  %215 = load i32, ptr %15, align 4
  %216 = and i32 %215, 1
  %217 = icmp eq i32 %216, 1
  br i1 %217, label %218, label %220

218:                                              ; preds = %214
  %219 = load ptr, ptr %14, align 8
  store i8 1, ptr %219, align 1
  br label %220

220:                                              ; preds = %218, %214
  %221 = load i32, ptr %10, align 4
  %222 = add i32 %221, 1
  store i32 %222, ptr %10, align 4
  %223 = load ptr, ptr %8, align 8
  %224 = load i32, ptr %10, align 4
  %225 = call zeroext i16 @tvb_get_ntohs(ptr noundef %223, i32 noundef %224)
  store i16 %225, ptr %17, align 2
  %226 = load i16, ptr %17, align 2
  %227 = load ptr, ptr %13, align 8
  store i16 %226, ptr %227, align 2
  %228 = load i32, ptr %10, align 4
  %229 = load ptr, ptr %12, align 8
  store i32 %228, ptr %229, align 4
  %230 = load i32, ptr %10, align 4
  %231 = add i32 %230, 2
  store i32 %231, ptr %10, align 4
  br label %232

232:                                              ; preds = %220, %189
  br label %233

233:                                              ; preds = %232, %157
  br label %234

234:                                              ; preds = %233, %125
  br label %235

235:                                              ; preds = %234, %94
  br label %293

236:                                              ; preds = %7
  %237 = load i32, ptr %15, align 4
  %238 = and i32 %237, 32
  %239 = lshr i32 %238, 5
  store i32 %239, ptr %19, align 4
  %240 = load i32, ptr %19, align 4
  %241 = icmp eq i32 %240, 1
  br i1 %241, label %242, label %265

242:                                              ; preds = %236
  %243 = load i32, ptr %15, align 4
  %244 = and i32 %243, 224
  store i32 %244, ptr %16, align 4
  %245 = load i8, ptr @display_udvm_bytecode, align 1, !range !8, !noundef !9
  %246 = trunc i8 %245 to i1
  br i1 %246, label %247, label %254

247:                                              ; preds = %242
  %248 = load ptr, ptr %9, align 8
  %249 = load i32, ptr @hf_udvm_multitype_bytecode, align 4
  %250 = load ptr, ptr %8, align 8
  %251 = load i32, ptr %10, align 4
  %252 = load i32, ptr %16, align 4
  %253 = call ptr @proto_tree_add_uint(ptr noundef %248, i32 noundef %249, ptr noundef %250, i32 noundef %251, i32 noundef 1, i32 noundef %252)
  br label %254

254:                                              ; preds = %247, %242
  %255 = load i32, ptr %15, align 4
  %256 = and i32 %255, 31
  %257 = add i32 %256, 65504
  %258 = trunc i32 %257 to i16
  store i16 %258, ptr %17, align 2
  %259 = load i32, ptr %10, align 4
  %260 = load ptr, ptr %12, align 8
  store i32 %259, ptr %260, align 4
  %261 = load i16, ptr %17, align 2
  %262 = load ptr, ptr %13, align 8
  store i16 %261, ptr %262, align 2
  %263 = load i32, ptr %10, align 4
  %264 = add i32 %263, 1
  store i32 %264, ptr %10, align 4
  br label %291

265:                                              ; preds = %236
  %266 = load i32, ptr %15, align 4
  %267 = and i32 %266, 224
  store i32 %267, ptr %16, align 4
  %268 = load i8, ptr @display_udvm_bytecode, align 1, !range !8, !noundef !9
  %269 = trunc i8 %268 to i1
  br i1 %269, label %270, label %277

270:                                              ; preds = %265
  %271 = load ptr, ptr %9, align 8
  %272 = load i32, ptr @hf_udvm_multitype_bytecode, align 4
  %273 = load ptr, ptr %8, align 8
  %274 = load i32, ptr %10, align 4
  %275 = load i32, ptr %16, align 4
  %276 = call ptr @proto_tree_add_uint(ptr noundef %271, i32 noundef %272, ptr noundef %273, i32 noundef %274, i32 noundef 1, i32 noundef %275)
  br label %277

277:                                              ; preds = %270, %265
  %278 = load ptr, ptr %8, align 8
  %279 = load i32, ptr %10, align 4
  %280 = call zeroext i16 @tvb_get_ntohs(ptr noundef %278, i32 noundef %279)
  %281 = zext i16 %280 to i32
  %282 = and i32 %281, 8191
  %283 = trunc i32 %282 to i16
  store i16 %283, ptr %17, align 2
  %284 = load ptr, ptr %14, align 8
  store i8 1, ptr %284, align 1
  %285 = load i32, ptr %10, align 4
  %286 = load ptr, ptr %12, align 8
  store i32 %285, ptr %286, align 4
  %287 = load i16, ptr %17, align 2
  %288 = load ptr, ptr %13, align 8
  store i16 %287, ptr %288, align 2
  %289 = load i32, ptr %10, align 4
  %290 = add i32 %289, 2
  store i32 %290, ptr %10, align 4
  br label %291

291:                                              ; preds = %277, %254
  br label %292

292:                                              ; preds = %7, %291
  br label %293

293:                                              ; preds = %292, %235, %64, %42
  %294 = load i32, ptr %10, align 4
  call void @llvm.lifetime.end.p0(i64 4, ptr %19) #10
  call void @llvm.lifetime.end.p0(i64 4, ptr %18) #10
  call void @llvm.lifetime.end.p0(i64 2, ptr %17) #10
  call void @llvm.lifetime.end.p0(i64 4, ptr %16) #10
  call void @llvm.lifetime.end.p0(i64 4, ptr %15) #10
  ret i32 %294
}