; Function Attrs: null_pointer_is_valid sspstrong uwtable
define internal fastcc noundef i32 @dissect_udvm_multitype_operand(ptr noundef %0, ptr noundef %1, i32 noundef %2, ptr noundef writeonly captures(none) %3, ptr noundef writeonly captures(none) %4, ptr noundef writeonly captures(none) initializes((0, 1)) %5) unnamed_addr #0 {
  store i8 0, ptr %5, align 1
  %7 = tail call zeroext i8 @tvb_get_uint8(ptr noundef %0, i32 noundef %2)
  %8 = zext i8 %7 to i32
  %9 = and i32 %8, 192
  %10 = lshr i32 %8, 6
  switch i32 %10, label %default.unreachable128 [
    i32 0, label %11
    i32 1, label %20
    i32 2, label %29
    i32 3, label %90
  ]

11:                                               ; preds = %6
  %12 = load i8, ptr @display_udvm_bytecode, align 1, !range !10, !noundef !11
  %13 = trunc nuw i8 %12 to i1
  br i1 %13, label %14, label %17

14:                                               ; preds = %11
  %15 = load i32, ptr @hf_udvm_multitype_bytecode, align 4
  %16 = tail call ptr @proto_tree_add_uint(ptr noundef %1, i32 noundef %15, ptr noundef %0, i32 noundef %2, i32 noundef 1, i32 noundef %9)
  br label %17

17:                                               ; preds = %14, %11
  %18 = and i8 %7, 63
  %19 = zext nneg i8 %18 to i16
  store i16 %19, ptr %4, align 2
  store i32 %2, ptr %3, align 4
  br label %109

20:                                               ; preds = %6
  %21 = load i8, ptr @display_udvm_bytecode, align 1, !range !10, !noundef !11
  %22 = trunc nuw i8 %21 to i1
  br i1 %22, label %23, label %26

23:                                               ; preds = %20
  %24 = load i32, ptr @hf_udvm_multitype_bytecode, align 4
  %25 = tail call ptr @proto_tree_add_uint(ptr noundef %1, i32 noundef %24, ptr noundef %0, i32 noundef %2, i32 noundef 1, i32 noundef %9)
  br label %26

26:                                               ; preds = %23, %20
  %.tr = zext i8 %7 to i16
  %27 = shl nuw nsw i16 %.tr, 1
  %28 = and i16 %27, 126
  store i8 1, ptr %5, align 1
  store i16 %28, ptr %4, align 2
  store i32 %2, ptr %3, align 4
  br label %109

29:                                               ; preds = %6
  %30 = and i32 %8, 224
  %31 = icmp eq i32 %30, 160
  br i1 %31, label %32, label %41

32:                                               ; preds = %29
  %33 = load i8, ptr @display_udvm_bytecode, align 1, !range !10, !noundef !11
  %34 = trunc nuw i8 %33 to i1
  br i1 %34, label %35, label %38

35:                                               ; preds = %32
  %36 = load i32, ptr @hf_udvm_multitype_bytecode, align 4
  %37 = tail call ptr @proto_tree_add_uint(ptr noundef %1, i32 noundef %36, ptr noundef %0, i32 noundef %2, i32 noundef 1, i32 noundef 160)
  br label %38

38:                                               ; preds = %35, %32
  %39 = tail call zeroext i16 @tvb_get_ntohs(ptr noundef %0, i32 noundef %2)
  %40 = and i16 %39, 8191
  store i16 %40, ptr %4, align 2
  store i32 %2, ptr %3, align 4
  br label %109

41:                                               ; preds = %29
  %42 = and i32 %8, 240
  %43 = icmp eq i32 %42, 144
  br i1 %43, label %44, label %53

44:                                               ; preds = %41
  %45 = load i8, ptr @display_udvm_bytecode, align 1, !range !10, !noundef !11
  %46 = trunc nuw i8 %45 to i1
  br i1 %46, label %47, label %50

47:                                               ; preds = %44
  %48 = load i32, ptr @hf_udvm_multitype_bytecode, align 4
  %49 = tail call ptr @proto_tree_add_uint(ptr noundef %1, i32 noundef %48, ptr noundef %0, i32 noundef %2, i32 noundef 1, i32 noundef 144)
  br label %50

50:                                               ; preds = %47, %44
  %51 = tail call zeroext i16 @tvb_get_ntohs(ptr noundef %0, i32 noundef %2)
  %52 = or i16 %51, -4096
  store i32 %2, ptr %3, align 4
  store i16 %52, ptr %4, align 2
  br label %109

53:                                               ; preds = %41
  %54 = and i32 %8, 8
  %.not126 = icmp eq i32 %54, 0
  br i1 %.not126, label %66, label %55

55:                                               ; preds = %53
  %56 = load i8, ptr @display_udvm_bytecode, align 1, !range !10, !noundef !11
  %57 = trunc nuw i8 %56 to i1
  br i1 %57, label %58, label %62

58:                                               ; preds = %55
  %59 = and i32 %8, 248
  %60 = load i32, ptr @hf_udvm_multitype_bytecode, align 4
  %61 = tail call ptr @proto_tree_add_uint(ptr noundef %1, i32 noundef %60, ptr noundef %0, i32 noundef %2, i32 noundef 1, i32 noundef %59)
  br label %62

62:                                               ; preds = %58, %55
  %63 = and i32 %8, 15
  %64 = shl nuw nsw i32 1, %63
  %65 = trunc nuw i32 %64 to i16
  store i32 %2, ptr %3, align 4
  store i16 %65, ptr %4, align 2
  br label %109

66:                                               ; preds = %53
  %67 = and i32 %8, 6
  %68 = icmp eq i32 %67, 6
  %69 = load i8, ptr @display_udvm_bytecode, align 1, !range !10, !noundef !11
  %70 = trunc nuw i8 %69 to i1
  br i1 %68, label %71, label %80

71:                                               ; preds = %66
  br i1 %70, label %72, label %76

72:                                               ; preds = %71
  %73 = and i32 %8, 246
  %74 = load i32, ptr @hf_udvm_multitype_bytecode, align 4
  %75 = tail call ptr @proto_tree_add_uint(ptr noundef %1, i32 noundef %74, ptr noundef %0, i32 noundef %2, i32 noundef 1, i32 noundef %73)
  br label %76

76:                                               ; preds = %72, %71
  %77 = and i32 %8, 7
  %78 = shl nuw nsw i32 1, %77
  %79 = trunc nuw nsw i32 %78 to i16
  store i32 %2, ptr %3, align 4
  store i16 %79, ptr %4, align 2
  br label %109

80:                                               ; preds = %66
  br i1 %70, label %81, label %84

81:                                               ; preds = %80
  %82 = load i32, ptr @hf_udvm_multitype_bytecode, align 4
  %83 = tail call ptr @proto_tree_add_uint(ptr noundef %1, i32 noundef %82, ptr noundef %0, i32 noundef %2, i32 noundef 1, i32 noundef %8)
  br label %84

84:                                               ; preds = %81, %80
  %85 = and i32 %8, 1
  %.not127 = icmp eq i32 %85, 0
  br i1 %.not127, label %87, label %86

86:                                               ; preds = %84
  store i8 1, ptr %5, align 1
  br label %87

87:                                               ; preds = %86, %84
  %88 = add i32 %2, 1
  %89 = tail call zeroext i16 @tvb_get_ntohs(ptr noundef %0, i32 noundef %88)
  store i16 %89, ptr %4, align 2
  store i32 %88, ptr %3, align 4
  br label %109

90:                                               ; preds = %6
  %91 = and i32 %8, 32
  %.not = icmp eq i32 %91, 0
  %92 = load i8, ptr @display_udvm_bytecode, align 1, !range !10, !noundef !11
  %93 = trunc nuw i8 %92 to i1
  br i1 %.not, label %102, label %94

94:                                               ; preds = %90
  br i1 %93, label %95, label %99

95:                                               ; preds = %94
  %96 = and i32 %8, 224
  %97 = load i32, ptr @hf_udvm_multitype_bytecode, align 4
  %98 = tail call ptr @proto_tree_add_uint(ptr noundef %1, i32 noundef %97, ptr noundef %0, i32 noundef %2, i32 noundef 1, i32 noundef %96)
  br label %99

99:                                               ; preds = %95, %94
  %100 = zext i8 %7 to i16
  %101 = or i16 %100, -32
  store i32 %2, ptr %3, align 4
  store i16 %101, ptr %4, align 2
  br label %109

102:                                              ; preds = %90
  br i1 %93, label %103, label %106

103:                                              ; preds = %102
  %104 = load i32, ptr @hf_udvm_multitype_bytecode, align 4
  %105 = tail call ptr @proto_tree_add_uint(ptr noundef %1, i32 noundef %104, ptr noundef %0, i32 noundef %2, i32 noundef 1, i32 noundef %9)
  br label %106

106:                                              ; preds = %103, %102
  %107 = tail call zeroext i16 @tvb_get_ntohs(ptr noundef %0, i32 noundef %2)
  %108 = and i16 %107, 8191
  store i8 1, ptr %5, align 1
  store i32 %2, ptr %3, align 4
  store i16 %108, ptr %4, align 2
  br label %109

default.unreachable128:                           ; preds = %6
  unreachable

109:                                              ; preds = %106, %99, %38, %62, %87, %76, %50, %26, %17
  %.sink = phi i32 [ 2, %106 ], [ 1, %99 ], [ 2, %38 ], [ 1, %62 ], [ 3, %87 ], [ 1, %76 ], [ 2, %50 ], [ 1, %26 ], [ 1, %17 ]
  %110 = add i32 %2, %.sink
  ret i32 %110
}